(lp0
(I168
I160
tp1
a(I169
I186
tp2
a(I159
I221
tp3
a(I150
I256
tp4
a(I151
I274
tp5
a(I168
I285
tp6
a(I183
I275
tp7
a(I188
I257
tp8
a(I191
I245
tp9
a(I190
I223
tp10
a(I192
I210
tp11
a(I193
I186
tp12
a(I194
I171
tp13
a(I189
I151
tp14
a(I183
I141
tp15
a(I160
I134
tp16
a(I147
I140
tp17
a.